; ModuleID = '/home/tijl/code/llmO/SUT/repeated_sort.cpp'
source_filename = "/home/tijl/code/llmO/SUT/repeated_sort.cpp"
target datalayout = "e-m:e-p270:32:32-p271:32:32-p272:64:64-i64:64-i128:128-f80:128-n8:16:32:64-S128"
target triple = "x86_64-redhat-linux-gnu"

%"struct.std::ranges::less" = type { i8 }
%"struct.std::identity" = type { i8 }

$_ZSt16__introsort_loopIN9__gnu_cxx17__normal_iteratorIPiSt6vectorIiSaIiEEEElNS0_5__ops15_Iter_comp_iterIZNSt6ranges8__detail16__make_comp_projINS9_4lessESt8identityEEDaRT_RT0_EUlOSE_OSG_E_EEEvSE_SE_SG_T1_ = comdat any

$_ZSt22__final_insertion_sortIN9__gnu_cxx17__normal_iteratorIPiSt6vectorIiSaIiEEEENS0_5__ops15_Iter_comp_iterIZNSt6ranges8__detail16__make_comp_projINS9_4lessESt8identityEEDaRT_RT0_EUlOSE_OSG_E_EEEvSE_SE_SG_ = comdat any

; Function Attrs: mustprogress uwtable
define i64 @repeated_sort(ptr noundef readonly %input, i64 noundef %input_length, i32 noundef %rounds) local_unnamed_addr #0 personality ptr @__gxx_personality_v0 {
entry:
  %__comp.i.i = alloca %"struct.std::ranges::less", align 1
  %__proj.i.i = alloca %"struct.std::identity", align 1
  %cmp = icmp ne ptr %input, null
  %cmp2 = icmp ne i64 %input_length, 0
  %or.cond39.not91 = and i1 %cmp, %cmp2
  %cmp588 = icmp sgt i32 %rounds, 0
  %or.cond = and i1 %or.cond39.not91, %cmp588
  br i1 %or.cond, label %for.body.lr.ph, label %return

for.body.lr.ph:                                   ; preds = %entry
  %add.ptr.idx = shl nuw nsw i64 %input_length, 2
  %cmp.i.i.i.i.i.i.i.i.i = icmp ugt i64 %input_length, 1
  %cmp1.i.i.i.i.i.i.i.i.i.i = icmp eq i64 %input_length, 1
  %0 = tail call range(i64 0, 65) i64 @llvm.ctlz.i64(i64 %input_length, i1 true)
  %1 = shl nuw nsw i64 %0, 1
  %mul.i.i.i.i = sub nuw nsw i64 126, %1
  %div38 = lshr i64 %input_length, 1
  %rem = and i64 %input_length, 1
  %cmp11 = icmp eq i64 %rem, 0
  %wide.trip.count = zext nneg i32 %rounds to i64
  ; Allocate buffer once
  %call5.i.i.i5.i = invoke noalias noundef nonnull ptr @_Znwm(i64 noundef %add.ptr.idx) #7
          to label %_ZNSt12_Vector_baseIiSaIiEE11_M_allocateEm.exit.i.i unwind label %lpad.i

_ZNSt12_Vector_baseIiSaIiEE11_M_allocateEm.exit.i.i: ; preds = %for.body
  %add.ptr.i.i = getelementptr inbounds nuw i8, ptr %call5.i.i.i5.i, i64 %add.ptr.idx
  br i1 %cmp.i.i.i.i.i.i.i.i.i.i, label %if.then.i.i.i.i.i.i.i.i.i.i, label %if.else.i.i.i.i.i.i.i.i.i.i, !prof !4

if.then.i.i.i.i.i.i.i.i.i.i:                      ; preds = %_ZNSt12_Vector_baseIiSaIiEE11_M_allocateEm.exit.i.i
  call void @llvm.memcpy.p0.p0.i64(ptr nonnull align 4 %call5.i.i.i5.i, ptr nonnull align 4 %input, i64 %add.ptr.idx, i1 false)
  br label %invoke.cont

if.else.i.i.i.i.i.i.i.i.i.i:                      ; preds = %_ZNSt12_Vector_baseIiSaIiEE11_M_allocateEm.exit.i.i
  br i1 %cmp1.i.i.i.i.i.i.i.i.i.i, label %if.then2.i.i.i.i.i.i.i.i.i.i, label %invoke.cont

if.then2.i.i.i.i.i.i.i.i.i.i:                     ; preds = %if.else.i.i.i.i.i.i.i.i.i.i
  %2 = load i32, ptr %input, align 4, !tbaa !5
  store i32 %2, ptr %call5.i.i.i5.i, align 4, !tbaa !5
  br label %invoke.cont

lpad.i:                                           ; preds = %for.body
  %3 = landingpad { ptr, i32 }
          catch ptr null
  br label %ehcleanup

invoke.cont:                                      ; preds = %if.then2.i.i.i.i.i.i.i.i.i.i, %if.else.i.i.i.i.i.i.i.i.i.i, %if.then.i.i.i.i.i.i.i.i.i.i
  call void @llvm.lifetime.start.p0(i64 1, ptr nonnull %__comp.i.i)
  call void @llvm.lifetime.start.p0(i64 1, ptr nonnull %__proj.i.i)
  invoke void @_ZSt16__introsort_loopIN9__gnu_cxx17__normal_iteratorIPiSt6vectorIiSaIiEEEElNS0_5__ops15_Iter_comp_iterIZNSt6ranges8__detail16__make_comp_projINS9_4lessESt8identityEEDaRT_RT0_EUlOSE_OSG_E_EEEvSE_SE_SG_T1_(ptr nonnull %call5.i.i.i5.i, ptr nonnull %add.ptr.i.i, i64 noundef %mul.i.i.i.i, ptr nonnull %__comp.i.i, ptr nonnull %__proj.i.i)
          to label %.noexc unwind label %lpad7

.noexc:                                           ; preds = %invoke.cont
  invoke void @_ZSt22__final_insertion_sortIN9__gnu_cxx17__normal_iteratorIPiSt6vectorIiSaIiEEEENS0_5__ops15_Iter_comp_iterIZNSt6ranges8__detail16__make_comp_projINS9_4lessESt8identityEEDaRT_RT0_EUlOSE_OSG_E_EEEvSE_SE_SG_(ptr nonnull %call5.i.i.i5.i, ptr nonnull %add.ptr.i.i, ptr nonnull %__comp.i.i, ptr nonnull %__proj.i.i)
          to label %_ZNKSt6ranges9__sort_fnclITkNS_19random_access_rangeERSt6vectorIiSaIiEENS_4lessESt8identityQ8sortableIDTclsr6ranges8__accessE7__beginclsr3stdE7declvalIRT_EEEET0_T1_EEENSt13__conditionalIX14borrowed_rangeIS8_EEE4typeISA_NS_8danglingEEEOS8_SB_SC_.exit unwind label %lpad7

_ZNKSt6ranges9__sort_fnclITkNS_19random_access_rangeERSt6vectorIiSaIiEENS_4lessESt8identityQ8sortableIDTclsr6ranges8__accessE7__beginclsr3stdE7declvalIRT_EEEET0_T1_EEENSt13__conditionalIX14borrowed_rangeIS8_EEE4typeISA_NS_8danglingEEEOS8_SB_SC_.exit: ; preds = %.noexc
  call void @llvm.lifetime.end.p0(i64 1, ptr nonnull %__comp.i.i)
  call void @llvm.lifetime.end.p0(i64 1, ptr nonnull %__proj.i.i)
  %4 = getelementptr i32, ptr %call5.i.i.i5.i, i64 %div38
  br i1 %cmp11, label %cond.true, label %cond.false

cond.true:                                        ; preds = %_ZNKSt6ranges9__sort_fnclITkNS_19random_access_rangeERSt6vectorIiSaIiEENS_4lessESt8identityQ8sortableIDTclsr6ranges8__accessE7__beginclsr3stdE7declvalIRT_EEEET0_T1_EEENSt13__conditionalIX14borrowed_rangeIS8_EEE4typeISA_NS_8danglingEEEOS8_SB_SC_.exit
  %add.ptr.i = getelementptr i8, ptr %4, i64 -4
  %5 = load i32, ptr %add.ptr.i, align 4, !tbaa !5
  %conv = sext i32 %5 to i64
  %add.ptr.i46 = getelementptr inbounds nuw i32, ptr %call5.i.i.i5.i, i64 %div38
  %6 = load i32, ptr %add.ptr.i46, align 4, !tbaa !5
  %conv14 = sext i32 %6 to i64
  %add = add nsw i64 %conv14, %conv
  %div15 = sdiv i64 %add, 2
  %conv16 = trunc nsw i64 %div15 to i32
  br label %cond.end

cond.false:                                       ; preds = %_ZNKSt6ranges9__sort_fnclITkNS_19random_access_rangeERSt6vectorIiSaIiEENS_4lessESt8identityQ8sortableIDTclsr6ranges8__accessE7__beginclsr3stdE7declvalIRT_EEEET0_T1_EEENSt13__conditionalIX14borrowed_rangeIS8_EEE4typeISA_NS_8danglingEEEOS8_SB_SC_.exit
  %7 = load i32, ptr %4, align 4, !tbaa !5
  br label %cond.end

cond.end:                                         ; preds = %cond.false, %cond.true
  %cond = phi i32 [ %conv16, %cond.true ], [ %7, %cond.false ]
  %conv18 = sext i32 %cond to i64
  %add19 = add nsw i64 %total.090, %conv18
  %rem22 = urem i64 %indvars.iv, %input_length
  %add.ptr.i53 = getelementptr inbounds nuw i32, ptr %call5.i.i.i5.i, i64 %rem22
  %8 = load i32, ptr %add.ptr.i53, align 4, !tbaa !5
  %conv24 = sext i32 %8 to i64
  %add25 = add nsw i64 %add19, %conv24
  call void @_ZdlPvm(ptr noundef nonnull %call5.i.i.i5.i, i64 noundef %add.ptr.idx) #8
  %indvars.iv.next = add nuw nsw i64 %indvars.iv, 1
  %exitcond.not = icmp eq i64 %indvars.iv.next, %wide.trip.count
  br i1 %exitcond.not, label %return, label %for.body, !llvm.loop !9

lpad7:                                            ; preds = %.noexc, %invoke.cont
  %9 = landingpad { ptr, i32 }
          catch ptr null
  call void @_ZdlPvm(ptr noundef nonnull %call5.i.i.i5.i, i64 noundef %add.ptr.idx) #8
  br label %ehcleanup

ehcleanup:                                        ; preds = %lpad7, %lpad.i
  %.pn = phi { ptr, i32 } [ %3, %lpad.i ], [ %9, %lpad7 ]
  %exn.slot.0 = extractvalue { ptr, i32 } %.pn, 0
  %10 = call ptr @__cxa_begin_catch(ptr %exn.slot.0) #9
  call void @__cxa_end_catch()
  br label %return

return:                                           ; preds = %cond.end, %entry, %ehcleanup
  %retval.0 = phi i64 [ 0