0000000000007aac T count_matches
0000000000007b24 T fibonacci
0000000000007b54 T format_list
00000000000081a4 T free_string
00000000000081a9 T free_word_counts
00000000000081e0 T repeated_sort
00000000000089c8 T top_words_from_file
00000000000089a8 T _Z12is_word_charc
00000000000089b9 T _Z14normalize_charc
0000000000008970 T _Z16copy_to_c_stringRKNSt7__cxx1112basic_stringIcSt11char_traitsIcESaIcEEE
0000000000009b52 W _ZNKSt10_HashtableINSt7__cxx1112basic_stringIcSt11char_traitsIcESaIcEEESt4pairIKS5_mESaIS8_ENSt8__detail10_Select1stESt8equal_toIS5_ESt4hashIS5_ENSA_18_Mod_range_hashingENSA_20_Default_ranged_hashENSA_20_Prime_rehash_policyENSA_17_Hashtable_traitsILb1ELb0ELb1EEEE12_M_find_nodeEmRS7_m
0000000000009c16 W _ZNKSt10_HashtableINSt7__cxx1112basic_stringIcSt11char_traitsIcESaIcEEESt4pairIKS5_mESaIS8_ENSt8__detail10_Select1stESt8equal_toIS5_ESt4hashIS5_ENSA_18_Mod_range_hashingENSA_20_Default_ranged_hashENSA_20_Prime_rehash_policyENSA_17_Hashtable_traitsILb1ELb0ELb1EEEE19_M_find_before_nodeEmRS7_m
0000000000009bfa W _ZNKSt15__str_hash_baseIcSaIcENSt7__cxx1112basic_stringIcSt11char_traitsIcES0_EEEclERKS5_
0000000000008310 W _ZNKSt6ranges9__sort_fnclITkNS_19random_access_rangeERSt6vectorIiSaIiEENS_4lessESt8identityQ8sortableIDTclsr6ranges8__accessE7__beginclsr3stdE7declvalIRT_EEEET0_T1_EEENSt13__conditionalIX14borrowed_rangeIS8_EEE4typeISA_NS_8danglingEEEOS8_SB_SC_
0000000000008416 W _ZNKSt6ranges9__sort_fnclITkSt22random_access_iteratorN9__gnu_cxx17__normal_iteratorIPiSt6vectorIiSaIiEEEETkSt12sentinel_forIT_ES8_NS_4lessESt8identityQ8sortableISA_T1_T2_EEESA_SA_T0_SD_SE_
0000000000009752 W _ZNKSt6vectorINSt7__cxx1112basic_stringIcSt11char_traitsIcESaIcEEESaIS5_EE12_M_check_lenEmPKc
000000000000a154 W _ZNKSt6vectorISt4pairINSt7__cxx1112basic_stringIcSt11char_traitsIcESaIcEEEmESaIS7_EE12_M_check_lenEmPKc
0000000000007e62 W _ZNKSt7__cxx1112basic_stringIcSt11char_traitsIcESaIcEE15_M_check_lengthEmmPKc
0000000000009c90 W _ZNKSt8__detail15_Hashtable_baseINSt7__cxx1112basic_stringIcSt11char_traitsIcESaIcEEESt4pairIKS6_mENS_10_Select1stESt8equal_toIS6_ESt4hashIS6_ENS_18_Mod_range_hashingENS_20_Default_ranged_hashENS_17_Hashtable_traitsILb1ELb0ELb1EEEE9_M_equalsERS8_mRKNS_16_Hash_node_valueIS9_Lb1EEE
0000000000009bde W _ZNSt10_HashtableINSt7__cxx1112basic_stringIcSt11char_traitsIcESaIcEEESt4pairIKS5_mESaIS8_ENSt8__detail10_Select1stESt8equal_toIS5_ESt4hashIS5_ENSA_18_Mod_range_hashingENSA_20_Default_ranged_hashENSA_20_Prime_rehash_policyENSA_17_Hashtable_traitsILb1ELb0ELb1EEEE12_Scoped_nodeD2Ev
0000000000009ee0 W _ZNSt10_HashtableINSt7__cxx1112basic_stringIcSt11char_traitsIcESaIcEEESt4pairIKS5_mESaIS8_ENSt8__detail10_Select1stESt8equal_toIS5_ESt4hashIS5_ENSA_18_Mod_range_hashingENSA_20_Default_ranged_hashENSA_20_Prime_rehash_policyENSA_17_Hashtable_traitsILb1ELb0ELb1EEEE19_M_allocate_bucketsEm
0000000000009f5e W _ZNSt10_HashtableINSt7__cxx1112basic_stringIcSt11char_traitsIcESaIcEEESt4pairIKS5_mESaIS8_ENSt8__detail10_Select1stESt8equal_toIS5_ESt4hashIS5_ENSA_18_Mod_range_hashingENSA_20_Default_ranged_hashENSA_20_Prime_rehash_policyENSA_17_Hashtable_traitsILb1ELb0ELb1EEEE21_M_deallocate_bucketsEPPNSA_15_Hash_node_baseEm
0000000000009ef8 W _ZNSt10_HashtableINSt7__cxx1112basic_stringIcSt11char_traitsIcESaIcEEESt4pairIKS5_mESaIS8_ENSt8__detail10_Select1stESt8equal_toIS5_ESt4hashIS5_ENSA_18_Mod_range_hashingENSA_20_Default_ranged_hashENSA_20_Prime_rehash_policyENSA_17_Hashtable_traitsILb1ELb0ELb1EEEE21_M_deallocate_bucketsEv
0000000000009b66 W _ZNSt10_HashtableINSt7__cxx1112basic_stringIcSt11char_traitsIcESaIcEEESt4pairIKS5_mESaIS8_ENSt8__detail10_Select1stESt8equal_toIS5_ESt4hashIS5_ENSA_18_Mod_range_hashingENSA_20_Default_ranged_hashENSA_20_Prime_rehash_policyENSA_17_Hashtable_traitsILb1ELb0ELb1EEEE21_M_insert_unique_nodeEmmPNSA_10_Hash_nodeIS8_Lb1EEEm
0000000000009e98 W _ZNSt10_HashtableINSt7__cxx1112basic_stringIcSt11char_traitsIcESaIcEEESt4pairIKS5_mESaIS8_ENSt8__detail10_Select1stESt8equal_toIS5_ESt4hashIS5_ENSA_18_Mod_range_hashingENSA_20_Default_ranged_hashENSA_20_Prime_rehash_policyENSA_17_Hashtable_traitsILb1ELb0ELb1EEEE22_M_insert_bucket_beginEmPNSA_10_Hash_nodeIS8_Lb1EEE
000000000000a270 W _ZNSt10_HashtableINSt7__cxx1112basic_stringIcSt11char_traitsIcESaIcEEESt4pairIKS5_mESaIS8_ENSt8__detail10_Select1stESt8equal_toIS5_ESt4hashIS5_ENSA_18_Mod_range_hashingENSA_20_Default_ranged_hashENSA_20_Prime_rehash_policyENSA_17_Hashtable_traitsILb1ELb0ELb1EEEE5clearEv
0000000000009e18 W _ZNSt10_HashtableINSt7__cxx1112basic_stringIcSt11char_traitsIcESaIcEEESt4pairIKS5_mESaIS8_ENSt8__detail10_Select1stESt8equal_toIS5_ESt4hashIS5_ENSA_18_Mod_range_hashingENSA_20_Default_ranged_hashENSA_20_Prime_rehash_policyENSA_17_Hashtable_traitsILb1ELb0ELb1EEEE9_M_rehashEmSt17integral_constantIbLb1EE
000000000000a254 W _ZNSt10_HashtableINSt7__cxx1112basic_stringIcSt11char_traitsIcESaIcEEESt4pairIKS5_mESaIS8_ENSt8__detail10_Select1stESt8equal_toIS5_ESt4hashIS5_ENSA_18_Mod_range_hashingENSA_20_Default_ranged_hashENSA_20_Prime_rehash_policyENSA_17_Hashtable_traitsILb1ELb0ELb1EEEED2Ev
0000000000009a92 W _ZNSt11char_traitsIcE7compareEPKcS2_m
000000000000a2f0 W _ZNSt12_Destroy_auxILb0EE9__destroyIPNSt7__cxx1112basic_stringIcSt11char_traitsIcESaIcEEEEEvT_S9_
000000000000a22e W _ZNSt12_Destroy_auxILb0EE9__destroyIPSt4pairINSt7__cxx1112basic_stringIcSt11char_traitsIcESaIcEEEmEEEvT_SB_
00000000000083ae W _ZNSt12_Vector_baseIiSaIiEE11_M_allocateEm
0000000000008400 W _ZNSt12_Vector_baseIiSaIiEE13_M_deallocateEPim
0000000000008390 W _ZNSt12_Vector_baseIiSaIiEED2Ev
0000000000009574 W _ZNSt12_Vector_baseINSt7__cxx1112basic_stringIcSt11char_traitsIcESaIcEEESaIS5_EE11_M_allocateEm
0000000000009584 W _ZNSt12_Vector_baseINSt7__cxx1112basic_stringIcSt11char_traitsIcESaIcEEESaIS5_EE13_M_deallocateEPS5_m
000000000000a2d2 W _ZNSt12_Vector_baseINSt7__cxx1112basic_stringIcSt11char_traitsIcESaIcEEESaIS5_EED2Ev
0000000000009f92 W _ZNSt12_Vector_baseISt4pairINSt7__cxx1112basic_stringIcSt11char_traitsIcESaIcEEEmESaIS7_EE11_M_allocateEm
0000000000009fa2 W _ZNSt12_Vector_baseISt4pairINSt7__cxx1112basic_stringIcSt11char_traitsIcESaIcEEEmESaIS7_EE13_M_deallocateEPS7_m
000000000000a208 W _ZNSt12_Vector_baseISt4pairINSt7__cxx1112basic_stringIcSt11char_traitsIcESaIcEEEmESaIS7_EED2Ev
0000000000007df0 W _ZNSt15__new_allocatorIcE8allocateEmPKv
00000000000083d8 W _ZNSt15__new_allocatorIiE8allocateEmPKv
000000000000959a W _ZNSt15__new_allocatorINSt7__cxx1112basic_stringIcSt11char_traitsIcESaIcEEEE8allocateEmPKv
0000000000009f36 W _ZNSt15__new_allocatorIPNSt8__detail15_Hash_node_baseEE8allocateEmPKv
0000000000009fb8 W _ZNSt15__new_allocatorISt4pairINSt7__cxx1112basic_stringIcSt11char_traitsIcESaIcEEEmEE8allocateEmPKv
000000000000a1b8 W _ZNSt20__copy_move_backwardILb1ELb1ESt26random_access_iterator_tagE13__copy_move_bI9WordCountS3_EEPT0_PT_S7_S5_
0000000000008920 W _ZNSt20__copy_move_backwardILb1ELb1ESt26random_access_iterator_tagE13__copy_move_bIiiEEPT0_PT_S6_S4_
0000000000009d36 W _ZNSt4pairIKNSt7__cxx1112basic_stringIcSt11char_traitsIcESaIcEEEmEC2IJRS6_EJEEESt21piecewise_construct_tSt5tupleIJDpT_EESB_IJDpT0_EE
0000000000009d44 W _ZNSt4pairIKNSt7__cxx1112basic_stringIcSt11char_traitsIcESaIcEEEmEC2IJRS6_EJLm0EEJETpTnmJEEERSt5tupleIJDpT_EERSA_IJDpT1_EESt12_Index_tupleIJXspT0_EEESJ_IJXspT2_EEE
000000000000a03e W _ZNSt4pairINSt7__cxx1112basic_stringIcSt11char_traitsIcESaIcEEEmEC2EOS6_
000000000000a136 W _ZNSt4pairINSt7__cxx1112basic_stringIcSt11char_traitsIcESaIcEEEmEC2ERKS5_RKmQcl16_S_constructibleIRKT_RKT0_EE
000000000000b209 V _ZNSt6ranges4sortE
00000000000083be W _ZNSt6vectorIiSaIiEE17_S_check_init_lenEmRKS0_
0000000000008320 W _ZNSt6vectorIiSaIiEE21_M_range_initialize_nIPKiEEvT_S5_m
00000000000082d4 W _ZNSt6vectorIiSaIiEEC2IPKivEET_S5_RKS0_
00000000000093c6 W _ZNSt6vectorINSt7__cxx1112basic_stringIcSt11char_traitsIcESaIcEEESaIS5_EE12emplace_backIJRKPKcEEERS5_DpOT_
0000000000009970 W _ZNSt6vectorINSt7__cxx1112basic_stringIcSt11char_traitsIcESaIcEEESaIS5_EE12emplace_backIJS5_EEERS5_DpOT_
0000000000009668 W _ZNSt6vectorINSt7__cxx1112basic_stringIcSt11char_traitsIcESaIcEEESaIS5_EE17_M_realloc_appendIJRKPKcEEEvDpOT_
00000000000099a4 W _ZNSt6vectorINSt7__cxx1112basic_stringIcSt11char_traitsIcESaIcEEESaIS5_EE17_M_realloc_appendIJS5_EEEvDpOT_
0000000000009332 W _ZNSt6vectorINSt7__cxx1112basic_stringIcSt11char_traitsIcESaIcEEESaIS5_EE7reserveEm
0000000000009552 W _ZNSt6vectorINSt7__cxx1112basic_stringIcSt11char_traitsIcESaIcEEESaIS5_EED2Ev
00000000000094fc W _ZNSt6vectorISt4pairINSt7__cxx1112basic_stringIcSt11char_traitsIcESaIcEEEmESaIS7_EE12emplace_backIJRKS6_RKmEEERS7_DpOT_
000000000000a05e W _ZNSt6vectorISt4pairINSt7__cxx1112basic_stringIcSt11char_traitsIcESaIcEEEmESaIS7_EE17_M_realloc_appendIJRKS6_RKmEEEvDpOT_
000000000000945a W _ZNSt6vectorISt4pairINSt7__cxx1112basic_stringIcSt11char_traitsIcESaIcEEEmESaIS7_EE7reserveEm
0000000000009530 W _ZNSt6vectorISt4pairINSt7__cxx1112basic_stringIcSt11char_traitsIcESaIcEEEmESaIS7_EED2Ev
0000000000007e18 W _ZNSt7__cxx1112basic_stringIcSt11char_traitsIcESaIcEE10_M_destroyEm
0000000000007e04 W _ZNSt7__cxx1112basic_stringIcSt11char_traitsIcESaIcEE10_M_disposeEv
0000000000007dde W _ZNSt7__cxx1112basic_stringIcSt11char_traitsIcESaIcEE11_S_allocateERS3_m
0000000000009d72 W _ZNSt7__cxx1112basic_stringIcSt11char_traitsIcESaIcEE12_M_constructIPcEEvT_S7_St20forward_iterator_tag
0000000000007cf6 W _ZNSt7__cxx1112basic_stringIcSt11char_traitsIcESaIcEE12_M_constructIPKcEEvT_S8_St20forward_iterator_tag
0000000000009898 W _ZNSt7__cxx1112basic_stringIcSt11char_traitsIcESaIcEE14_M_replace_auxEmmmc
000000000000804c W _ZNSt7__cxx1112basic_stringIcSt11char_traitsIcESaIcEE20resize_and_overwriteIRZNS_9to_stringEiEUlPcmE_EEvmT_
0000000000008030 W _ZNSt7__cxx1112basic_stringIcSt11char_traitsIcESaIcEE22__resize_and_overwriteIZNS_9to_stringEiEUlPcmE_EEvmT_
0000000000009886 W _ZNSt7__cxx1112basic_stringIcSt11char_traitsIcESaIcEE6appendEmc
0000000000007e24 W _ZNSt7__cxx1112basic_stringIcSt11char_traitsIcESaIcEE6appendEPKc
0000000000008174 W _ZNSt7__cxx1112basic_stringIcSt11char_traitsIcESaIcEE6appendEPKcm
0000000000008164 W _ZNSt7__cxx1112basic_stringIcSt11char_traitsIcESaIcEE6appendERKS4_
00000000000097f0 W _ZNSt7__cxx1112basic_stringIcSt11char_traitsIcESaIcEE6resizeEm
0000000000009864 W _ZNSt7__cxx1112basic_stringIcSt11char_traitsIcESaIcEE6resizeEmc
000000000000807e W _ZNSt7__cxx1112basic_stringIcSt11char_traitsIcESaIcEE7reserveEm
0000000000007e82 W _ZNSt7__cxx1112basic_stringIcSt11char_traitsIcESaIcEE9_M_appendEPKcm
0000000000007d84 W _ZNSt7__cxx1112basic_stringIcSt11char_traitsIcESaIcEE9_M_createERmm
0000000000007ef4 W _ZNSt7__cxx1112basic_stringIcSt11char_traitsIcESaIcEE9_M_mutateEmmPKcm
00000000000093fa W _ZNSt7__cxx1112basic_stringIcSt11char_traitsIcESaIcEE9push_backEc
0000000000009614 W _ZNSt7__cxx1112basic_stringIcSt11char_traitsIcESaIcEEC2EOS4_
0000000000009d58 W _ZNSt7__cxx1112basic_stringIcSt11char_traitsIcESaIcEEC2ERKS4_
0000000000007c50 W _ZNSt7__cxx1112basic_stringIcSt11char_traitsIcESaIcEEC2IS3_EEPKcRKS3_
0000000000007ce6 W _ZNSt7__cxx1112basic_stringIcSt11char_traitsIcESaIcEED2Ev
0000000000007c90 W _ZNSt7__cxx119to_stringEi
0000000000007fec W _ZNSt8__detail14__to_chars_lenIjEEjT_i
0000000000009ca4 W _ZNSt8__detail16_Hashtable_allocISaINS_10_Hash_nodeISt4pairIKNSt7__cxx1112basic_stringIcSt11char_traitsIcESaIcEEEmELb1EEEEE16_M_allocate_nodeIJRKSt21piecewise_construct_tSt5tupleIJRS9_EESI_IJEEEEEPSB_DpOT_
0000000000009f78 W _ZNSt8__detail16_Hashtable_allocISaINS_10_Hash_nodeISt4pairIKNSt7__cxx1112basic_stringIcSt11char_traitsIcESaIcEEEmELb1EEEEE18_M_deallocate_nodeEPSB_
0000000000009f04 W _ZNSt8__detail16_Hashtable_allocISaINS_10_Hash_nodeISt4pairIKNSt7__cxx1112basic_stringIcSt11char_traitsIcESaIcEEEmELb1EEEEE19_M_allocate_bucketsEm
000000000000a2ae W _ZNSt8__detail16_Hashtable_allocISaINS_10_Hash_nodeISt4pairIKNSt7__cxx1112basic_stringIcSt11char_traitsIcESaIcEEEmELb1EEEEE19_M_deallocate_nodesEPSB_
000000000000810e W _ZNSt8__detail18__to_chars_10_implIjEEvPcjT_
0000000000009a9e W _ZNSt8__detail9_Map_baseINSt7__cxx1112basic_stringIcSt11char_traitsIcESaIcEEESt4pairIKS6_mESaIS9_ENS_10_Select1stESt8equal_toIS6_ESt4hashIS6_ENS_18_Mod_range_hashingENS_20_Default_ranged_hashENS_20_Prime_rehash_policyENS_17_Hashtable_traitsILb1ELb0ELb1EEELb1EEixERS8_
0000000000008716 W _ZSt10__pop_heapIN9__gnu_cxx17__normal_iteratorIPiSt6vectorIiSaIiEEEENS0_5__ops15_Iter_comp_iterIZNSt6ranges8__detail16__make_comp_projINS9_4lessESt8identityEEDaRT_RT0_EUlOSE_OSG_E_EEEvSE_SE_SE_SH_
00000000000086c6 W _ZSt11__make_heapIN9__gnu_cxx17__normal_iteratorIPiSt6vectorIiSaIiEEEENS0_5__ops15_Iter_comp_iterIZNSt6ranges8__detail16__make_comp_projINS9_4lessESt8identityEEDaRT_RT0_EUlOSE_OSG_E_EEEvSE_SE_SH_
00000000000087c5 W _ZSt11__push_heapIN9__gnu_cxx17__normal_iteratorIPiSt6vectorIiSaIiEEEEliNS0_5__ops14_Iter_comp_valIZNSt6ranges8__detail16__make_comp_projINS9_4lessESt8identityEEDaRT_RT0_EUlOSE_OSG_E_EEEvSE_SG_SG_T1_RT2_
0000000000008681 W _ZSt11__sort_heapIN9__gnu_cxx17__normal_iteratorIPiSt6vectorIiSaIiEEEENS0_5__ops15_Iter_comp_iterIZNSt6ranges8__detail16__make_comp_projINS9_4lessESt8identityEEDaRT_RT0_EUlOSE_OSG_E_EEEvSE_SE_SH_
0000000000009734 W _ZSt12construct_atINSt7__cxx1112basic_stringIcSt11char_traitsIcESaIcEEEJRKPKcEEDTgsnwcvPvLi0E_T_pispclsr3stdE7declvalIT0_EEEEPSB_DpOSC_
0000000000009d15 W _ZSt12construct_atISt4pairIKNSt7__cxx1112basic_stringIcSt11char_traitsIcESaIcEEEmEJRKSt21piecewise_construct_tSt5tupleIJRS7_EESC_IJEEEEDTgsnwcvPvLi0E_T_pispclsr3stdE7declvalIT0_EEEEPSH_DpOSI_
00000000000097f7 W _ZSt12__str_concatINSt7__cxx1112basic_stringIcSt11char_traitsIcESaIcEEEET_PKNS6_10value_typeENS6_9size_typeES9_SA_RKNS6_14allocator_typeE
000000000000873b W _ZSt13__adjust_heapIN9__gnu_cxx17__normal_iteratorIPiSt6vectorIiSaIiEEEEliNS0_5__ops15_Iter_comp_iterIZNSt6ranges8__detail16__make_comp_projINS9_4lessESt8identityEEDaRT_RT0_EUlOSE_OSG_E_EEEvSE_SG_SG_T1_T2_
0000000000008621 W _ZSt13__heap_selectIN9__gnu_cxx17__normal_iteratorIPiSt6vectorIiSaIiEEEENS0_5__ops15_Iter_comp_iterIZNSt6ranges8__detail16__make_comp_projINS9_4lessESt8identityEEDaRT_RT0_EUlOSE_OSG_E_EEEvSE_SE_SE_SG_
000000000000858d W _ZSt14__partial_sortIN9__gnu_cxx17__normal_iteratorIPiSt6vectorIiSaIiEEEENS0_5__ops15_Iter_comp_iterIZNSt6ranges8__detail16__make_comp_projINS9_4lessESt8identityEEDaRT_RT0_EUlOSE_OSG_E_EEEvSE_SE_SE_SG_
00000000000095c1 W _ZSt14__relocate_a_1IPNSt7__cxx1112basic_stringIcSt11char_traitsIcESaIcEEES6_SaIS5_EET0_T_S9_S8_RT1_
0000000000009feb W _ZSt14__relocate_a_1IPSt4pairINSt7__cxx1112basic_stringIcSt11char_traitsIcESaIcEEEmES8_SaIS7_EET0_T_SB_SA_RT1_
0000000000008864 W _ZSt16__insertion_sortIN9__gnu_cxx17__normal_iteratorIPiSt6vectorIiSaIiEEEENS0_5__ops15_Iter_comp_iterIZNSt6ranges8__detail16__make_comp_projINS9_4lessESt8identityEEDaRT_RT0_EUlOSE_OSG_E_EEEvSE_SE_SG_
0000000000008499 W _ZSt16__introsort_loopIN9__gnu_cxx17__normal_iteratorIPiSt6vectorIiSaIiEEEElNS0_5__ops15_Iter_comp_iterIZNSt6ranges8__detail16__make_comp_projINS9_4lessESt8identityEEDaRT_RT0_EUlOSE_OSG_E_EEEvSE_SE_SG_T1_
000000000000b220 V _ZSt19piecewise_construct
0000000000009601 W _ZSt19__relocate_object_aINSt7__cxx1112basic_stringIcSt11char_traitsIcESaIcEEES5_SaIS5_EEvPT_PT0_RT1_
000000000000a02b W _ZSt19__relocate_object_aISt4pairINSt7__cxx1112basic_stringIcSt11char_traitsIcESaIcEEEmES7_SaIS7_EEvPT_PT0_RT1_
0000000000008838 W _ZSt21__unguarded_partitionIN9__gnu_cxx17__normal_iteratorIPiSt6vectorIiSaIiEEEENS0_5__ops15_Iter_comp_iterIZNSt6ranges8__detail16__make_comp_projINS9_4lessESt8identityEEDaRT_RT0_EUlOSE_OSG_E_EEESE_SE_SE_SE_SG_
0000000000008918 W _ZSt22__copy_move_backward_aILb1EN9__gnu_cxx17__normal_iteratorIPiSt6vectorIiSaIiEEEES6_ET1_T0_S8_S7_
0000000000008529 W _ZSt22__final_insertion_sortIN9__gnu_cxx17__normal_iteratorIPiSt6vectorIiSaIiEEEENS0_5__ops15_Iter_comp_iterIZNSt6ranges8__detail16__make_comp_projINS9_4lessESt8identityEEDaRT_RT0_EUlOSE_OSG_E_EEEvSE_SE_SG_
00000000000087ed W _ZSt22__move_median_to_firstIN9__gnu_cxx17__normal_iteratorIPiSt6vectorIiSaIiEEEENS0_5__ops15_Iter_comp_iterIZNSt6ranges8__detail16__make_comp_projINS9_4lessESt8identityEEDaRT_RT0_EUlOSE_OSG_E_EEEvSE_SE_SE_SE_SG_
0000000000008904 W _ZSt25__unguarded_linear_insertIN9__gnu_cxx17__normal_iteratorIPiSt6vectorIiSaIiEEEENS0_5__ops14_Val_comp_iterIZNSt6ranges8__detail16__make_comp_projINS9_4lessESt8identityEEDaRT_RT0_EUlOSE_OSG_E_EEEvSE_SG_
00000000000088cb W _ZSt26__unguarded_insertion_sortIN9__gnu_cxx17__normal_iteratorIPiSt6vectorIiSaIiEEEENS0_5__ops15_Iter_comp_iterIZNSt6ranges8__detail16__make_comp_projINS9_4lessESt8identityEEDaRT_RT0_EUlOSE_OSG_E_EEEvSE_SE_SG_
00000000000085c3 W _ZSt27__unguarded_partition_pivotIN9__gnu_cxx17__normal_iteratorIPiSt6vectorIiSaIiEEEENS0_5__ops15_Iter_comp_iterIZNSt6ranges8__detail16__make_comp_projINS9_4lessESt8identityEEDaRT_RT0_EUlOSE_OSG_E_EEESE_SE_SE_SG_
000000000000843c W _ZSt6__sortIN9__gnu_cxx17__normal_iteratorIPiSt6vectorIiSaIiEEEENS0_5__ops15_Iter_comp_iterIZNSt6ranges8__detail16__make_comp_projINS9_4lessESt8identityEEDaRT_RT0_EUlOSE_OSG_E_EEEvSE_SE_SG_
0000000000009a6f W _ZSteqIcSt11char_traitsIcESaIcEEbRKNSt7__cxx1112basic_stringIT_T0_T1_EESA_
00000000000097af W _ZStplIcSt11char_traitsIcESaIcEENSt7__cxx1112basic_stringIT_T0_T1_EEPKS5_RKS8_
0000000000009796 W _ZZNSt6vectorINSt7__cxx1112basic_stringIcSt11char_traitsIcESaIcEEESaIS5_EE17_M_realloc_appendIJRKPKcEEEvDpOT_EN6_GuardD2Ev
0000000000009a56 W _ZZNSt6vectorINSt7__cxx1112basic_stringIcSt11char_traitsIcESaIcEEESaIS5_EE17_M_realloc_appendIJS5_EEEvDpOT_EN6_GuardD2Ev
000000000000a1a2 W _ZZNSt6vectorISt4pairINSt7__cxx1112basic_stringIcSt11char_traitsIcESaIcEEEmESaIS7_EE17_M_realloc_appendIJRKS6_RKmEEEvDpOT_EN6_GuardD2Ev
0000000000009e00 W _ZZNSt7__cxx1112basic_stringIcSt11char_traitsIcESaIcEE12_M_constructIPcEEvT_S7_St20forward_iterator_tagEN6_GuardD2Ev
0000000000007dc6 W _ZZNSt7__cxx1112basic_stringIcSt11char_traitsIcESaIcEE12_M_constructIPKcEEvT_S8_St20forward_iterator_tagEN6_GuardD2Ev
00000000000080ee W _ZZNSt7__cxx119to_stringEiENKUlPcmE_clES0_m
